LIBRARY	"QuantLib"
EXPORTS
	??0TARGET@QuantLib@@QAE@XZ
	?advance@Calendar@QuantLib@@QBE?AVDate@2@ABV32@HW4TimeUnit@2@W4BusinessDayConvention@2@_N@Z
	??0Schedule@QuantLib@@QAE@VDate@1@ABV21@ABVPeriod@1@ABVCalendar@1@W4BusinessDayConvention@1@4W4Rule@DateGeneration@1@_N11@Z
	?implementation@ActualActual@QuantLib@@CA?AV?$shared_ptr@VImpl@DayCounter@QuantLib@@@boost@@W4Convention@12@@Z
	?endOfMonth@Date@QuantLib@@SA?AV12@ABV12@@Z
	?settlementDate@Bond@QuantLib@@QBE?AVDate@2@V32@@Z
	??0ZeroCouponBond@QuantLib@@QAE@IABVCalendar@1@NABVDate@1@W4BusinessDayConvention@1@N1@Z
	?dirtyPrice@Bond@QuantLib@@QBENXZ
	?maturityDate@Bond@QuantLib@@QBE?AVDate@2@XZ
	?cleanPrice@Bond@QuantLib@@QBENXZ
	?holidayList@Calendar@QuantLib@@SA?AV?$vector@VDate@QuantLib@@V?$allocator@VDate@QuantLib@@@std@@@std@@ABV12@ABVDate@2@1_N@Z
	?advance@Calendar@QuantLib@@QBE?AVDate@2@ABV32@ABVPeriod@2@W4BusinessDayConvention@2@_N@Z
	?removeHoliday@Calendar@QuantLib@@QAEXABVDate@2@@Z
	?addHoliday@Calendar@QuantLib@@QAEXABVDate@2@@Z
	?businessDaysBetween@Calendar@QuantLib@@QBEJABVDate@2@0_N1@Z
	?adjust@Calendar@QuantLib@@QBE?AVDate@2@ABV32@W4BusinessDayConvention@2@@Z
	?yearFraction@Impl@Business252@QuantLib@@UBENABVDate@3@000@Z 
	?dayCount@Impl@Business252@QuantLib@@UBEJABVDate@3@0@Z
	?yearFraction@Impl@SimpleDayCounter@QuantLib@@UBENABVDate@3@000@Z  
	?name@Impl@Business252@QuantLib@@UBE?AV?$basic_string@DU?$char_traits@D@std@@V?$allocator@D@2@@std@@XZ
	?dayCount@Impl@SimpleDayCounter@QuantLib@@UBEJABVDate@3@0@Z
	?previousDate@Schedule@QuantLib@@QBE?AVDate@2@ABV32@@Z
	?nextDate@Schedule@QuantLib@@QBE?AVDate@2@ABV32@@Z
	??0SimpleCashFlow@QuantLib@@QAE@NABVDate@1@@Z
	??0JointCalendar@QuantLib@@QAE@ABVCalendar@1@0W4JointCalendarRule@1@@Z
	??0UnitedKingdom@QuantLib@@QAE@W4Market@01@@Z
	??0UnitedStates@QuantLib@@QAE@W4Market@01@@Z
	??0Germany@QuantLib@@QAE@W4Market@01@@Z
	?implementation@Thirty360@QuantLib@@CA?AV?$shared_ptr@VImpl@DayCounter@QuantLib@@@boost@@W4Convention@12@@Z
	??0DiscountingBondEngine@QuantLib@@QAE@ABV?$Handle@VYieldTermStructure@QuantLib@@@1@V?$optional@_N@boost@@@Z
	??0InterestRate@QuantLib@@QAE@XZ
	?zeroRate@YieldTermStructure@QuantLib@@QBE?AVInterestRate@2@ABVDate@2@ABVDayCounter@2@W4Compounding@2@W4Frequency@2@_N@Z
	??0InterestRate@QuantLib@@QAE@NABVDayCounter@1@W4Compounding@1@W4Frequency@1@@Z
	?discount@YieldTermStructure@QuantLib@@QBENN_N@Z
	??0FlatForward@QuantLib@@QAE@ABVDate@1@ABV?$Handle@VQuote@QuantLib@@@1@ABVDayCounter@1@W4Compounding@1@W4Frequency@1@@Z
	??0FlatForward@QuantLib@@QAE@ABVDate@1@NABVDayCounter@1@W4Compounding@1@W4Frequency@1@@Z
	??0FlatForward@QuantLib@@QAE@IABVCalendar@1@ABV?$Handle@VQuote@QuantLib@@@1@ABVDayCounter@1@W4Compounding@1@W4Frequency@1@@Z
	??0FlatForward@QuantLib@@QAE@IABVCalendar@1@NABVDayCounter@1@W4Compounding@1@W4Frequency@1@@Z
	??0FuturesRateHelper@QuantLib@@QAE@ABV?$Handle@VQuote@QuantLib@@@1@ABVDate@1@IABVCalendar@1@W4BusinessDayConvention@1@_NABVDayCounter@1@0@Z
	??0FraRateHelper@QuantLib@@QAE@ABV?$Handle@VQuote@QuantLib@@@1@IIIABVCalendar@1@W4BusinessDayConvention@1@_NABVDayCounter@1@@Z
	??0SwapRateHelper@QuantLib@@QAE@NABV?$shared_ptr@VSwapIndex@QuantLib@@@boost@@ABV?$Handle@VQuote@QuantLib@@@1@ABVPeriod@1@ABV?$Handle@VYieldTermStructure@QuantLib@@@1@@Z
	??0SwapRateHelper@QuantLib@@QAE@NABVPeriod@1@ABVCalendar@1@W4Frequency@1@W4BusinessDayConvention@1@ABVDayCounter@1@ABV?$shared_ptr@VIborIndex@QuantLib@@@boost@@ABV?$Handle@VQuote@QuantLib@@@1@0ABV?$Handle@VYieldTermStructure@QuantLib@@@1@@Z
	??0DepositRateHelper@QuantLib@@QAE@NABV?$shared_ptr@VIborIndex@QuantLib@@@boost@@@Z
	??0DepositRateHelper@QuantLib@@QAE@NABVPeriod@1@IABVCalendar@1@W4BusinessDayConvention@1@_NABVDayCounter@1@@Z
	??0SwapIndex@QuantLib@@QAE@ABV?$basic_string@DU?$char_traits@D@std@@V?$allocator@D@2@@std@@ABVPeriod@1@IVCurrency@1@ABVCalendar@1@1W4BusinessDayConvention@1@ABVDayCounter@1@ABV?$shared_ptr@VIborIndex@QuantLib@@@boost@@@Z
	??0Libor@QuantLib@@QAE@ABV?$basic_string@DU?$char_traits@D@std@@V?$allocator@D@2@@std@@ABVPeriod@1@IABVCurrency@1@ABVCalendar@1@ABVDayCounter@1@ABV?$Handle@VYieldTermStructure@QuantLib@@@1@@Z
	??0ZeroYieldStructure@QuantLib@@QAE@ABVDate@1@ABVCalendar@1@ABVDayCounter@1@ABV?$vector@V?$Handle@VQuote@QuantLib@@@QuantLib@@V?$allocator@V?$Handle@VQuote@QuantLib@@@QuantLib@@@std@@@std@@ABV?$vector@VDate@QuantLib@@V?$allocator@VDate@QuantLib@@@std@@@6@@Z
	?setJumps@YieldTermStructure@QuantLib@@AAEXXZ
	?update@TermStructure@QuantLib@@UAEXXZ
	?referenceDate@TermStructure@QuantLib@@UBEABVDate@2@XZ
	??0DividendVanillaOption@QuantLib@@QAE@ABV?$shared_ptr@VStrikedTypePayoff@QuantLib@@@boost@@ABV?$shared_ptr@VExercise@QuantLib@@@3@ABV?$vector@VDate@QuantLib@@V?$allocator@VDate@QuantLib@@@std@@@std@@ABV?$vector@NV?$allocator@N@std@@@6@@Z
	??0EuropeanOption@QuantLib@@QAE@ABV?$shared_ptr@VStrikedTypePayoff@QuantLib@@@boost@@ABV?$shared_ptr@VExercise@QuantLib@@@3@@Z
	??0VanillaOption@QuantLib@@QAE@ABV?$shared_ptr@VStrikedTypePayoff@QuantLib@@@boost@@ABV?$shared_ptr@VExercise@QuantLib@@@3@@Z
	??0AmericanExercise@QuantLib@@QAE@ABVDate@1@0_N@Z
	??0AmericanExercise@QuantLib@@QAE@ABVDate@1@_N@Z
	??0EuropeanExercise@QuantLib@@QAE@ABVDate@1@@Z
	?impliedVolatility@DividendVanillaOption@QuantLib@@QBENNABV?$shared_ptr@VGeneralizedBlackScholesProcess@QuantLib@@@boost@@NINN@Z
	?impliedVolatility@VanillaOption@QuantLib@@QBENNABV?$shared_ptr@VGeneralizedBlackScholesProcess@QuantLib@@@boost@@NINN@Z
	?itmCashProbability@OneAssetOption@QuantLib@@QBENXZ
	?strikeSensitivity@OneAssetOption@QuantLib@@QBENXZ
	?dividendRho@OneAssetOption@QuantLib@@QBENXZ
	?rho@OneAssetOption@QuantLib@@QBENXZ
	?vega@OneAssetOption@QuantLib@@QBENXZ
	?thetaPerDay@OneAssetOption@QuantLib@@QBENXZ
	?theta@OneAssetOption@QuantLib@@QBENXZ
	?gamma@OneAssetOption@QuantLib@@QBENXZ
	?elasticity@OneAssetOption@QuantLib@@QBENXZ
	?deltaForward@OneAssetOption@QuantLib@@QBENXZ
	?delta@OneAssetOption@QuantLib@@QBENXZ
	?accept@PlainVanillaPayoff@QuantLib@@UAEXAAVAcyclicVisitor@2@@Z
	?description@StrikedTypePayoff@QuantLib@@UBE?AV?$basic_string@DU?$char_traits@D@std@@V?$allocator@D@2@@std@@XZ
	?description@TypePayoff@QuantLib@@UBE?AV?$basic_string@DU?$char_traits@D@std@@V?$allocator@D@2@@std@@XZ
	??RPlainVanillaPayoff@QuantLib@@UBENN@Z
	??0BlackScholesMertonProcess@QuantLib@@QAE@ABV?$Handle@VQuote@QuantLib@@@1@ABV?$Handle@VYieldTermStructure@QuantLib@@@1@1ABV?$Handle@VBlackVolTermStructure@QuantLib@@@1@ABV?$shared_ptr@Vdiscretization@StochasticProcess1D@QuantLib@@@boost@@@Z
	??0BlackScholesProcess@QuantLib@@QAE@ABV?$Handle@VQuote@QuantLib@@@1@ABV?$Handle@VYieldTermStructure@QuantLib@@@1@ABV?$Handle@VBlackVolTermStructure@QuantLib@@@1@ABV?$shared_ptr@Vdiscretization@StochasticProcess1D@QuantLib@@@boost@@@Z
	?covariance@EulerDiscretization@QuantLib@@UBE?AV?$Disposable@VMatrix@QuantLib@@@2@ABVStochasticProcess@2@NABVArray@2@N@Z
	?diffusion@EulerDiscretization@QuantLib@@UBE?AV?$Disposable@VMatrix@QuantLib@@@2@ABVStochasticProcess@2@NABVArray@2@N@Z
	?diffusion@EulerDiscretization@QuantLib@@UBENABVStochasticProcess1D@2@NNN@Z
	?drift@EulerDiscretization@QuantLib@@UBE?AV?$Disposable@VArray@QuantLib@@@2@ABVStochasticProcess@2@NABVArray@2@N@Z
	?drift@EulerDiscretization@QuantLib@@UBENABVStochasticProcess1D@2@NNN@Z
	?variance@EulerDiscretization@QuantLib@@UBENABVStochasticProcess1D@2@NNN@Z
	??0BlackVolatilityTermStructure@QuantLib@@QAE@ABVDate@1@ABVCalendar@1@W4BusinessDayConvention@1@ABVDayCounter@1@@Z
	?blackVolatility@GeneralizedBlackScholesProcess@QuantLib@@QBEABV?$Handle@VBlackVolTermStructure@QuantLib@@@2@XZ
	??0AnalyticDividendEuropeanEngine@QuantLib@@QAE@ABV?$shared_ptr@VGeneralizedBlackScholesProcess@QuantLib@@@boost@@@Z
	??0AnalyticEuropeanEngine@QuantLib@@QAE@ABV?$shared_ptr@VGeneralizedBlackScholesProcess@QuantLib@@@boost@@@Z
	??0AnalyticHestonEngine@QuantLib@@QAE@ABV?$shared_ptr@VHestonModel@QuantLib@@@boost@@I@Z
	??0BaroneAdesiWhaleyApproximationEngine@QuantLib@@QAE@ABV?$shared_ptr@VGeneralizedBlackScholesProcess@QuantLib@@@boost@@@Z
	??0BatesDetJumpEngine@QuantLib@@QAE@ABV?$shared_ptr@VBatesDetJumpModel@QuantLib@@@boost@@I@Z
	??0BatesDoubleExpDetJumpEngine@QuantLib@@QAE@ABV?$shared_ptr@VBatesDoubleExpDetJumpModel@QuantLib@@@boost@@I@Z
	??0BatesDoubleExpEngine@QuantLib@@QAE@ABV?$shared_ptr@VBatesDoubleExpModel@QuantLib@@@boost@@I@Z
	??0BatesEngine@QuantLib@@QAE@ABV?$shared_ptr@VBatesModel@QuantLib@@@boost@@I@Z
	??0BlackCalculator@QuantLib@@QAE@ABV?$shared_ptr@VStrikedTypePayoff@QuantLib@@@boost@@NNN@Z
	?applyTo@TridiagonalOperator@QuantLib@@QBE?AV?$Disposable@VArray@QuantLib@@@2@ABVArray@2@@Z
	?checkRange@TermStructure@QuantLib@@IBEXABVDate@2@_N@Z
	?checkStrike@VolatilityTermStructure@QuantLib@@IBEXN_N@Z
	?delta@BlackCalculator@QuantLib@@UBENN@Z
	?discount@YieldTermStructure@QuantLib@@QBENN_N@Z
	?dividendYield@GeneralizedBlackScholesProcess@QuantLib@@QBEABV?$Handle@VYieldTermStructure@QuantLib@@@2@XZ
	?elasticity@BlackCalculator@QuantLib@@UBENN@Z
	?ensureStrikeInGrid@FDVanillaEngine@QuantLib@@IBEXXZ
	?firstDerivativeAtCenter@SampledCurve@QuantLib@@QBENXZ
	?gamma@BlackCalculator@QuantLib@@UBENN@Z
	?getResidualTime@FDVanillaEngine@QuantLib@@MBENXZ
	?identity@TridiagonalOperator@QuantLib@@SA?AV?$Disposable@VTridiagonalOperator@QuantLib@@@2@I@Z
	?initializeBoundaryConditions@FDVanillaEngine@QuantLib@@MBEXXZ
	?initializeInitialCondition@FDVanillaEngine@QuantLib@@MBEXXZ
	?initializeOperator@FDVanillaEngine@QuantLib@@MBEXXZ
	?riskFreeRate@GeneralizedBlackScholesProcess@QuantLib@@QBEABV?$Handle@VYieldTermStructure@QuantLib@@@2@XZ
	?secondDerivativeAtCenter@SampledCurve@QuantLib@@QBENXZ
	?setGridLimits@FDVanillaEngine@QuantLib@@MBEXNN@Z
	?setGridLimits@FDVanillaEngine@QuantLib@@MBEXXZ
	?setupArguments@FDVanillaEngine@QuantLib@@MBEXPBVarguments@PricingEngine@2@@Z
	?solveFor@TridiagonalOperator@QuantLib@@QBEXABVArray@2@AAV32@@Z
	?stateVariable@GeneralizedBlackScholesProcess@QuantLib@@QBEABV?$Handle@VQuote@QuantLib@@@2@XZ
	?theta@BlackCalculator@QuantLib@@UBENNN@Z
	?validate@arguments@DividendVanillaOption@QuantLib@@UBEXXZ
	?value@BlackCalculator@QuantLib@@QBENXZ
	?valueAtCenter@SampledCurve@QuantLib@@QBENXZ
	??0TridiagonalOperator@QuantLib@@QAE@ABV?$Disposable@VTridiagonalOperator@QuantLib@@@1@@Z
	??0TridiagonalOperator@QuantLib@@QAE@ABVArray@1@00@Z
	??0TridiagonalOperator@QuantLib@@QAE@I@Z
	??0Constraint@QuantLib@@QAE@ABV?$shared_ptr@VImpl@Constraint@QuantLib@@@boost@@@Z
	??0HestonModel@QuantLib@@QAE@ABV?$shared_ptr@VHestonProcess@QuantLib@@@boost@@@Z
	??0HestonModelHelper@QuantLib@@QAE@ABVPeriod@1@ABVCalendar@1@NNABV?$Handle@VQuote@QuantLib@@@1@ABV?$Handle@VYieldTermStructure@QuantLib@@@1@3W4CalibrationErrorType@CalibrationHelper@1@@Z
	?impliedVolatility@CalibrationHelper@QuantLib@@QBENNNINN@Z
	??0BatesDetJumpModel@QuantLib@@QAE@ABV?$shared_ptr@VBatesProcess@QuantLib@@@boost@@NN@Z
	??0BatesDoubleExpDetJumpModel@QuantLib@@QAE@ABV?$shared_ptr@VHestonProcess@QuantLib@@@boost@@NNNNNN@Z
	??0BatesDoubleExpModel@QuantLib@@QAE@ABV?$shared_ptr@VHestonProcess@QuantLib@@@boost@@NNNN@Z
	??0BatesModel@QuantLib@@QAE@ABV?$shared_ptr@VBatesProcess@QuantLib@@@boost@@@Z
	??0EndCriteria@QuantLib@@QAE@IINNN@Z
	??0LevenbergMarquardt@QuantLib@@QAE@NNN@Z
	?s0@HestonProcess@QuantLib@@QBEABV?$Handle@VQuote@QuantLib@@@2@XZ
	??0HestonProcess@QuantLib@@QAE@ABV?$Handle@VYieldTermStructure@QuantLib@@@1@0ABV?$Handle@VQuote@QuantLib@@@1@NNNNNW4Discretization@01@@Z
	??0BatesProcess@QuantLib@@QAE@ABV?$Handle@VYieldTermStructure@QuantLib@@@1@0ABV?$Handle@VQuote@QuantLib@@@1@NNNNNNNNW4Discretization@HestonProcess@1@@Z
	?delta@BatesProcess@QuantLib@@QBENXZ
	?nu@BatesProcess@QuantLib@@QBENXZ
	?lambda@BatesProcess@QuantLib@@QBENXZ
	??0Data@Currency@QuantLib@@QAE@ABV?$basic_string@DU?$char_traits@D@std@@V?$allocator@D@2@@std@@0H00HABVRounding@2@0ABV12@@Z
	?survivalProbability@DefaultProbabilityTermStructure@QuantLib@@QBENN_N@Z
	??0SpreadCdsHelper@QuantLib@@QAE@NABVPeriod@1@HABVCalendar@1@W4Frequency@1@W4BusinessDayConvention@1@W4Rule@DateGeneration@1@ABVDayCounter@1@NABV?$Handle@VYieldTermStructure@QuantLib@@@1@_N7@Z
	?clone@IborIndex@QuantLib@@UBE?AV?$shared_ptr@VIborIndex@QuantLib@@@boost@@ABV?$Handle@VYieldTermStructure@QuantLib@@@2@@Z
	?forecastFixing@IborIndex@QuantLib@@UBENABVDate@2@@Z
	??0Euribor@QuantLib@@QAE@ABVPeriod@1@ABV?$Handle@VYieldTermStructure@QuantLib@@@1@@Z
	?fixing@InterestRateIndex@QuantLib@@UBENABVDate@2@_N@Z
	?addFixing@Index@QuantLib@@UAEXABVDate@2@N_N@Z
	?maturityDate@IborIndex@QuantLib@@UBE?AVDate@2@ABV32@@Z
	?couponLegNPV@CreditDefaultSwap@QuantLib@@QBENXZ
	?defaultLegNPV@CreditDefaultSwap@QuantLib@@QBENXZ
	?fairSpread@CreditDefaultSwap@QuantLib@@QBENXZ
	?fairUpfront@CreditDefaultSwap@QuantLib@@QBENXZ
	??0CreditDefaultSwap@QuantLib@@QAE@W4Side@Protection@1@NNABVSchedule@1@W4BusinessDayConvention@1@ABVDayCounter@1@_N4ABVDate@1@ABV?$shared_ptr@VClaim@QuantLib@@@boost@@@Z
	??0Date@QuantLib@@QAE@XZ
	?assertion_failed@boost@@YAXPBD00J@Z
	??0ZARCurrency@QuantLib@@QAE@XZ
	??0SGDCurrency@QuantLib@@QAE@XZ
	??0SEKCurrency@QuantLib@@QAE@XZ
	??0PLNCurrency@QuantLib@@QAE@XZ
	??0NZDCurrency@QuantLib@@QAE@XZ		
	??0NOKCurrency@QuantLib@@QAE@XZ
	??0HKDCurrency@QuantLib@@QAE@XZ
	??0INRCurrency@QuantLib@@QAE@XZ
	??0DKKCurrency@QuantLib@@QAE@XZ
	??0AUDCurrency@QuantLib@@QAE@XZ
	??0CHFCurrency@QuantLib@@QAE@XZ
	??0JPYCurrency@QuantLib@@QAE@XZ
	??0GBPCurrency@QuantLib@@QAE@XZ
	??0EURCurrency@QuantLib@@QAE@XZ
	??0USDCurrency@QuantLib@@QAE@XZ
	?what@Error@QuantLib@@UBEPBDXZ
	??0Error@QuantLib@@QAE@ABV?$basic_string@DU?$char_traits@D@std@@V?$allocator@D@2@@std@@J00@Z
	??6QuantLib@@YAAAV?$basic_ostream@DU?$char_traits@D@std@@@std@@AAV12@ABVDate@0@@Z
	?businessDayConvention@IborIndex@QuantLib@@QBE?AW4BusinessDayConvention@2@XZ
	??0FixedRateBond@QuantLib@@QAE@INABVSchedule@1@ABV?$vector@NV?$allocator@N@std@@@std@@ABVDayCounter@1@W4BusinessDayConvention@1@NABVDate@1@ABVCalendar@1@ABVPeriod@1@5W461@_N@Z
	?yield@Bond@QuantLib@@QBENNABVDayCounter@2@W4Compounding@2@W4Frequency@2@VDate@2@NI@Z
	??0VanillaSwap@QuantLib@@QAE@W4Type@01@NABVSchedule@1@NABVDayCounter@1@1ABV?$shared_ptr@VIborIndex@QuantLib@@@boost@@N2V?$optional@W4BusinessDayConvention@QuantLib@@@6@@Z
	?floatingLegNPV@VanillaSwap@QuantLib@@QBENXZ
	?fixedLegNPV@VanillaSwap@QuantLib@@QBENXZ
	?floatingLegBPS@VanillaSwap@QuantLib@@QBENXZ
	?fixedLegBPS@VanillaSwap@QuantLib@@QBENXZ
	?fairSpread@VanillaSwap@QuantLib@@QBENXZ
	?fairRate@VanillaSwap@QuantLib@@QBENXZ
	?maturityDate@Swap@QuantLib@@QBE?AVDate@2@XZ
	?startDate@Swap@QuantLib@@QBE?AVDate@2@XZ
	?blackFormulaImpliedStdDev@QuantLib@@YANW4Type@Option@1@NNNNNNNI@Z
	?blackFormula@QuantLib@@YANW4Type@Option@1@NNNNN@Z
	??0MidPointCdsEngine@QuantLib@@QAE@ABV?$Handle@VDefaultProbabilityTermStructure@QuantLib@@@1@NABV?$Handle@VYieldTermStructure@QuantLib@@@1@V?$optional@_N@boost@@@Z
	??0DiscountingSwapEngine@QuantLib@@QAE@ABV?$Handle@VYieldTermStructure@QuantLib@@@1@V?$optional@_N@boost@@VDate@1@2@Z
	?maxDate@Date@QuantLib@@SA?AV12@XZ
	??0FixedRateBondHelper@QuantLib@@QAE@ABV?$Handle@VQuote@QuantLib@@@1@INABVSchedule@1@ABV?$vector@NV?$allocator@N@std@@@std@@ABVDayCounter@1@W4BusinessDayConvention@1@NABVDate@1@@Z
	??0BondHelper@QuantLib@@QAE@ABV?$Handle@VQuote@QuantLib@@@1@ABV?$shared_ptr@VBond@QuantLib@@@boost@@@Z
	?forwardRate@YieldTermStructure@QuantLib@@QBE?AVInterestRate@2@ABVDate@2@0ABVDayCounter@2@W4Compounding@2@W4Frequency@2@_N@Z
	?update@YieldTermStructure@QuantLib@@UAEXXZ
	?isLeap@Date@QuantLib@@SA_NH@Z
	?month@Date@QuantLib@@QBE?AW4Month@2@XZ
	?year@Date@QuantLib@@QBEHXZ
	?monthLength@Date@QuantLib@@CAHW4Month@2@_N@Z
	??0Date@QuantLib@@QAE@HW4Month@1@H@Z
	??0Period@QuantLib@@QAE@W4Frequency@1@@Z
	??_0Period@QuantLib@@QAEAAV01@H@Z
	?minDate@Date@QuantLib@@SA?AV12@XZ
	?nthWeekday@Date@QuantLib@@SA?AV12@IW4Weekday@2@W4Month@2@H@Z
	?nextWeekday@Date@QuantLib@@SA?AV12@ABV12@W4Weekday@2@@Z
	?todaysDate@Date@QuantLib@@SA?AV12@XZ
	??ZDate@QuantLib@@QAEAAV01@ABVPeriod@1@@Z
	??ZDate@QuantLib@@QAEAAV01@J@Z
	??YDate@QuantLib@@QAEAAV01@ABVPeriod@1@@Z
	??YDate@QuantLib@@QAEAAV01@J@Z
	??ZPeriod@QuantLib@@QAEAAV01@ABV01@@Z
	??YPeriod@QuantLib@@QAEAAV01@ABV01@@Z
	??GQuantLib@@YA?AVPeriod@0@ABV10@0@Z
	?normalize@Period@QuantLib@@QAEXXZ
	?frequency@Period@QuantLib@@QBE?AW4Frequency@2@XZ
	?monthOffset@Date@QuantLib@@CAHW4Month@2@_N@Z
	?advance@Date@QuantLib@@CA?AV12@ABV12@HW4TimeUnit@2@@Z
	??0Date@QuantLib@@QAE@J@Z
	?yearOffset@Date@QuantLib@@CAJH@Z
	??MQuantLib@@YA_NABVPeriod@0@0@Z
	?nextCode@IMM@QuantLib@@SA?AV?$basic_string@DU?$char_traits@D@std@@V?$allocator@D@2@@std@@ABV34@_NABVDate@2@@Z
	?nextCode@IMM@QuantLib@@SA?AV?$basic_string@DU?$char_traits@D@std@@V?$allocator@D@2@@std@@ABVDate@2@_N@Z
	?nextDate@IMM@QuantLib@@SA?AVDate@2@ABV?$basic_string@DU?$char_traits@D@std@@V?$allocator@D@2@@std@@_NABV32@@Z
	?nextDate@IMM@QuantLib@@SA?AVDate@2@ABV32@_N@Z
	?date@IMM@QuantLib@@SA?AVDate@2@ABV?$basic_string@DU?$char_traits@D@std@@V?$allocator@D@2@@std@@ABV32@@Z
	?code@IMM@QuantLib@@SA?AV?$basic_string@DU?$char_traits@D@std@@V?$allocator@D@2@@std@@ABVDate@2@@Z
	?isIMMdate@IMM@QuantLib@@SA_NABVDate@2@_N@Z
	?isIMMcode@IMM@QuantLib@@SA_NABV?$basic_string@DU?$char_traits@D@std@@V?$allocator@D@2@@std@@_N@Z
	??0Japan@QuantLib@@QAE@XZ
	??0Switzerland@QuantLib@@QAE@XZ
	?make_sequence_generator@?$GenericPseudoRandom@VMersenneTwisterUniformRng@QuantLib@@VInverseCumulativeNormal@2@@QuantLib@@SA?AV?$InverseCumulativeRsg@V?$RandomSequenceGenerator@VMersenneTwisterUniformRng@QuantLib@@@QuantLib@@VInverseCumulativeNormal@2@@2@IK@Z
	??0Settings@QuantLib@@AAE@XZ
	??6QuantLib@@YAAAV?$basic_ostream@DU?$char_traits@D@std@@@std@@AAV12@W4BusinessDayConvention@0@@Z
	??6detail@QuantLib@@YAAAV?$basic_ostream@DU?$char_traits@D@std@@@std@@AAV23@ABUordinal_holder@01@@Z
	?checkRange@TermStructure@QuantLib@@IBEXN_N@Z
	??0SurvivalProbabilityStructure@QuantLib@@QAE@ABVDate@1@ABVCalendar@1@ABVDayCounter@1@ABV?$vector@V?$Handle@VQuote@QuantLib@@@QuantLib@@V?$allocator@V?$Handle@VQuote@QuantLib@@@QuantLib@@@std@@@std@@ABV?$vector@VDate@QuantLib@@V?$allocator@VDate@QuantLib@@@std@@@6@@Z
	??0DefaultDensityStructure@QuantLib@@QAE@ABVDate@1@ABVCalendar@1@ABVDayCounter@1@ABV?$vector@V?$Handle@VQuote@QuantLib@@@QuantLib@@V?$allocator@V?$Handle@VQuote@QuantLib@@@QuantLib@@@std@@@std@@ABV?$vector@VDate@QuantLib@@V?$allocator@VDate@QuantLib@@@std@@@6@@Z
	??0HazardRateStructure@QuantLib@@QAE@ABVDate@1@ABVCalendar@1@ABVDayCounter@1@ABV?$vector@V?$Handle@VQuote@QuantLib@@@QuantLib@@V?$allocator@V?$Handle@VQuote@QuantLib@@@QuantLib@@@std@@@std@@ABV?$vector@VDate@QuantLib@@V?$allocator@VDate@QuantLib@@@std@@@6@@Z
	??6detail@QuantLib@@YAAAV?$basic_ostream@DU?$char_traits@D@std@@@std@@AAV23@ABUordinal_holder@01@@Z
	?inverse@QuantLib@@YA?AV?$Disposable@VMatrix@QuantLib@@@1@ABVMatrix@1@@Z
	??0ForwardRateStructure@QuantLib@@QAE@ABVDate@1@ABVCalendar@1@ABVDayCounter@1@ABV?$vector@V?$Handle@VQuote@QuantLib@@@QuantLib@@V?$allocator@V?$Handle@VQuote@QuantLib@@@QuantLib@@@std@@@std@@ABV?$vector@VDate@QuantLib@@V?$allocator@VDate@QuantLib@@@std@@@6@@Z
	??0YieldTermStructure@QuantLib@@QAE@ABVDate@1@ABVCalendar@1@ABVDayCounter@1@ABV?$vector@V?$Handle@VQuote@QuantLib@@@QuantLib@@V?$allocator@V?$Handle@VQuote@QuantLib@@@QuantLib@@@std@@@std@@ABV?$vector@VDate@QuantLib@@V?$allocator@VDate@QuantLib@@@std@@@6@@Z
	?setJumps@DefaultProbabilityTermStructure@QuantLib@@AAEXXZ
	??0TimeGrid@QuantLib@@QAE@NI@Z
	??0MersenneTwisterUniformRng@QuantLib@@QAE@K@Z
	?riskFreeRate@HestonProcess@QuantLib@@QBEABV?$Handle@VYieldTermStructure@QuantLib@@@2@XZ
	?mean@GeneralStatistics@QuantLib@@QBENXZ
	?variance@GeneralStatistics@QuantLib@@QBENXZ
	?x_low_@InverseCumulativeNormal@QuantLib@@0NB
	?x_high_@InverseCumulativeNormal@QuantLib@@0NB
	?a1_@InverseCumulativeNormal@QuantLib@@0NB
	?a2_@InverseCumulativeNormal@QuantLib@@0NB
	?a3_@InverseCumulativeNormal@QuantLib@@0NB
	?a4_@InverseCumulativeNormal@QuantLib@@0NB
	?a5_@InverseCumulativeNormal@QuantLib@@0NB
	?a6_@InverseCumulativeNormal@QuantLib@@0NB
	?b1_@InverseCumulativeNormal@QuantLib@@0NB
	?b2_@InverseCumulativeNormal@QuantLib@@0NB
	?b3_@InverseCumulativeNormal@QuantLib@@0NB
	?b4_@InverseCumulativeNormal@QuantLib@@0NB
	?b5_@InverseCumulativeNormal@QuantLib@@0NB
	?tail_value@InverseCumulativeNormal@QuantLib@@CANN@Z
	?twist@MersenneTwisterUniformRng@QuantLib@@ABEXXZ